target datalayout = "e-m:e-p270:32:32-p271:32:32-p272:64:64-i64:64-i128:128-f80:128-n8:16:32:64-S128"
target triple = "x86_64-pc-linux-gnu"

%struct.rxinfo = type { i8, i8, i16, i32, i32, i32, i32 }

@hf_afs_fs_errcode = internal global i32 0, align 4
@hf_afs_fs_data = internal global i32 0, align 4
@hf_afs_fs_volname = internal global i32 0, align 4
@hf_afs_fs_timestamp = internal global i32 0, align 4
@hf_afs_fs_offlinemsg = internal global i32 0, align 4
@hf_afs_fs_motd = internal global i32 0, align 4
@hf_afs_fs_xstats_version = internal global i32 0, align 4
@hf_afs_fs_xstats_timestamp = internal global i32 0, align 4
@hf_afs_fs_cps_spare2 = internal global i32 0, align 4
@hf_afs_fs_cps_spare3 = internal global i32 0, align 4
@.str.235 = private unnamed_addr constant [5 x i8] c"File\00", align 1
@.str.245 = private unnamed_addr constant [7 x i8] c"Status\00", align 1
@.str.929 = private unnamed_addr constant [9 x i8] c"New File\00", align 1
@.str.930 = private unnamed_addr constant [14 x i8] c"New Directory\00", align 1
@.str.931 = private unnamed_addr constant [12 x i8] c"File Status\00", align 1
@.str.932 = private unnamed_addr constant [17 x i8] c"Directory Status\00", align 1
@.str.933 = private unnamed_addr constant [21 x i8] c"Old Directory Status\00", align 1
@.str.934 = private unnamed_addr constant [21 x i8] c"New Directory Status\00", align 1
@.str.935 = private unnamed_addr constant [8 x i8] c"Symlink\00", align 1
@.str.936 = private unnamed_addr constant [12 x i8] c"Link Status\00", align 1

; Function Attrs: null_pointer_is_valid sspstrong uwtable
define internal void @dissect_fs_reply(ptr noundef %0, ptr noundef %1, i32 noundef %2) #0 {
  %4 = alloca ptr, align 8
  %5 = alloca ptr, align 8
  %6 = alloca i32, align 4
  %7 = alloca i32, align 4
  %8 = alloca i32, align 4
  %9 = alloca i32, align 4
  %10 = alloca i32, align 4
  %11 = alloca i32, align 4
  %12 = alloca i32, align 4
  %13 = alloca i32, align 4
  %14 = alloca i32, align 4
  store ptr %0, ptr %4, align 8
  store ptr %1, ptr %5, align 8
  store i32 %2, ptr %6, align 4
  %15 = load ptr, ptr %5, align 8
  %16 = getelementptr inbounds nuw %struct.rxinfo, ptr %15, i32 0, i32 0
  %17 = load i8, ptr %16, align 4
  %18 = zext i8 %17 to i32
  %19 = icmp eq i32 %18, 1
  br i1 %19, label %20, label %171

20:                                               ; preds = %3
  %21 = load i32, ptr %6, align 4
  switch i32 %21, label %170 [
    i32 130, label %22
    i32 131, label %29
    i32 132, label %34
    i32 133, label %38
    i32 134, label %38
    i32 135, label %38
    i32 136, label %38
    i32 137, label %41
    i32 141, label %41
    i32 161, label %41
    i32 163, label %41
    i32 138, label %56
    i32 139, label %60
    i32 140, label %62
    i32 142, label %64
    i32 143, label %67
    i32 144, label %67
    i32 145, label %67
    i32 147, label %67
    i32 150, label %67
    i32 152, label %67
    i32 146, label %170
    i32 148, label %68
    i32 154, label %68
    i32 149, label %69
    i32 151, label %76
    i32 153, label %79
    i32 155, label %82
    i32 156, label %117
    i32 157, label %117
    i32 158, label %117
    i32 159, label %119
    i32 160, label %123
    i32 162, label %129
    i32 65536, label %136
  ]

22:                                               ; preds = %20
  %23 = load ptr, ptr %4, align 8
  call void @OUT_FS_AFSFetchStatus(ptr noundef %23, ptr noundef @.str.245)
  %24 = load ptr, ptr %4, align 8
  call void @OUT_FS_AFSCallBack(ptr noundef %24)
  %25 = load ptr, ptr %4, align 8
  call void @OUT_FS_AFSVolSync(ptr noundef %25)
  %26 = load ptr, ptr %4, align 8
  %27 = load i32, ptr @hf_afs_fs_data, align 4
  %28 = call ptr @ptvcursor_add(ptr noundef %26, i32 noundef %27, i32 noundef -1, i32 noundef 0)
  br label %170

29:                                               ; preds = %20
  %30 = load ptr, ptr %4, align 8
  %31 = load ptr, ptr %5, align 8
  call void @dissect_acl(ptr noundef %30, ptr noundef %31)
  %32 = load ptr, ptr %4, align 8
  call void @OUT_FS_AFSFetchStatus(ptr noundef %32, ptr noundef @.str.245)
  %33 = load ptr, ptr %4, align 8
  call void @OUT_FS_AFSVolSync(ptr noundef %33)
  br label %170

34:                                               ; preds = %20
  %35 = load ptr, ptr %4, align 8
  call void @OUT_FS_AFSFetchStatus(ptr noundef %35, ptr noundef @.str.245)
  %36 = load ptr, ptr %4, align 8
  call void @OUT_FS_AFSCallBack(ptr noundef %36)
  %37 = load ptr, ptr %4, align 8
  call void @OUT_FS_AFSVolSync(ptr noundef %37)
  br label %170

38:                                               ; preds = %20, %20, %20, %20
  %39 = load ptr, ptr %4, align 8
  call void @OUT_FS_AFSFetchStatus(ptr noundef %39, ptr noundef @.str.245)
  %40 = load ptr, ptr %4, align 8
  call void @OUT_FS_AFSVolSync(ptr noundef %40)
  br label %170

41:                                               ; preds = %20, %20, %20, %20
  %42 = load ptr, ptr %4, align 8
  %43 = load i32, ptr %6, align 4
  %44 = icmp eq i32 %43, 137
  br i1 %44, label %45, label %46

45:                                               ; preds = %41
  br label %50

46:                                               ; preds = %41
  %47 = load i32, ptr %6, align 4
  %48 = icmp eq i32 %47, 141
  %49 = select i1 %48, ptr @.str.930, ptr @.str.235
  br label %50

50:                                               ; preds = %46, %45
  %51 = phi ptr [ @.str.929, %45 ], [ %49, %46 ]
  call void @OUT_FS_AFSFid(ptr noundef %42, ptr noundef %51)
  %52 = load ptr, ptr %4, align 8
  call void @OUT_FS_AFSFetchStatus(ptr noundef %52, ptr noundef @.str.931)
  %53 = load ptr, ptr %4, align 8
  call void @OUT_FS_AFSFetchStatus(ptr noundef %53, ptr noundef @.str.932)
  %54 = load ptr, ptr %4, align 8
  call void @OUT_FS_AFSCallBack(ptr noundef %54)
  %55 = load ptr, ptr %4, align 8
  call void @OUT_FS_AFSVolSync(ptr noundef %55)
  br label %170

56:                                               ; preds = %20
  %57 = load ptr, ptr %4, align 8
  call void @OUT_FS_AFSFetchStatus(ptr noundef %57, ptr noundef @.str.933)
  %58 = load ptr, ptr %4, align 8
  call void @OUT_FS_AFSFetchStatus(ptr noundef %58, ptr noundef @.str.934)
  %59 = load ptr, ptr %4, align 8
  call void @OUT_FS_AFSVolSync(ptr noundef %59)
  br label %170

60:                                               ; preds = %20
  %61 = load ptr, ptr %4, align 8
  call void @OUT_FS_AFSFid(ptr noundef %61, ptr noundef @.str.935)
  br label %170

62:                                               ; preds = %20
  %63 = load ptr, ptr %4, align 8
  call void @OUT_FS_AFSFetchStatus(ptr noundef %63, ptr noundef @.str.936)
  br label %170

64:                                               ; preds = %20
  %65 = load ptr, ptr %4, align 8
  call void @OUT_FS_AFSFetchStatus(ptr noundef %65, ptr noundef @.str.932)
  %66 = load ptr, ptr %4, align 8
  call void @OUT_FS_AFSVolSync(ptr noundef %66)
  br label %170

67:                                               ; preds = %20, %20, %20, %20, %20, %20
  br label %170

68:                                               ; preds = %20, %20
  br label %170

69:                                               ; preds = %20
  %70 = load ptr, ptr %4, align 8
  %71 = load i32, ptr @hf_afs_fs_volname, align 4
  call void @OUT_RXString(ptr noundef %70, i32 noundef %71)
  %72 = load ptr, ptr %4, align 8
  %73 = load i32, ptr @hf_afs_fs_offlinemsg, align 4
  call void @OUT_RXString(ptr noundef %72, i32 noundef %73)
  %74 = load ptr, ptr %4, align 8
  %75 = load i32, ptr @hf_afs_fs_motd, align 4
  call void @OUT_RXString(ptr noundef %74, i32 noundef %75)
  br label %170

76:                                               ; preds = %20
  %77 = load ptr, ptr %4, align 8
  %78 = load i32, ptr @hf_afs_fs_volname, align 4
  call void @OUT_RXString(ptr noundef %77, i32 noundef %78)
  br label %170

79:                                               ; preds = %20
  %80 = load ptr, ptr %4, align 8
  %81 = load i32, ptr @hf_afs_fs_timestamp, align 4
  call void @OUT_TIMESTAMP(ptr noundef %80, i32 noundef %81)
  br label %170

82:                                               ; preds = %20
  call void @llvm.lifetime.start.p0(i64 4, ptr %7) #9
  call void @llvm.lifetime.start.p0(i64 4, ptr %8) #9
  %83 = load ptr, ptr %4, align 8
  %84 = call ptr @ptvcursor_tvbuff(ptr noundef %83)
  %85 = load ptr, ptr %4, align 8
  %86 = call i32 @ptvcursor_current_offset(ptr noundef %85)
  %87 = call i32 @tvb_get_ntohl(ptr noundef %84, i32 noundef %86)
  store i32 %87, ptr %7, align 4
  %88 = load ptr, ptr %4, align 8
  call void @ptvcursor_advance(ptr noundef %88, i32 noundef 4)
  store i32 0, ptr %8, align 4
  br label %89

89:                                               ; preds = %95, %82
  %90 = load i32, ptr %8, align 4
  %91 = load i32, ptr %7, align 4
  %92 = icmp ult i32 %90, %91
  br i1 %92, label %93, label %98

93:                                               ; preds = %89
  %94 = load ptr, ptr %4, align 8
  call void @OUT_FS_AFSFetchStatus(ptr noundef %94, ptr noundef @.str.245)
  br label %95

95:                                               ; preds = %93
  %96 = load i32, ptr %8, align 4
  %97 = add i32 %96, 1
  store i32 %97, ptr %8, align 4
  br label %89, !llvm.loop !8

98:                                               ; preds = %89
  call void @llvm.lifetime.end.p0(i64 4, ptr %8) #9
  call void @llvm.lifetime.end.p0(i64 4, ptr %7) #9
  %99 = load ptr, ptr %4, align 8
  call void @ptvcursor_advance(ptr noundef %99, i32 noundef 4)
  call void @llvm.lifetime.start.p0(i64 4, ptr %9) #9
  call void @llvm.lifetime.start.p0(i64 4, ptr %10) #9
  %100 = load ptr, ptr %4, align 8
  %101 = call ptr @ptvcursor_tvbuff(ptr noundef %100)
  %102 = load ptr, ptr %4, align 8
  %103 = call i32 @ptvcursor_current_offset(ptr noundef %102)
  %104 = call i32 @tvb_get_ntohl(ptr noundef %101, i32 noundef %103)
  store i32 %104, ptr %9, align 4
  %105 = load ptr, ptr %4, align 8
  call void @ptvcursor_advance(ptr noundef %105, i32 noundef 4)
  store i32 0, ptr %10, align 4
  br label %106

106:                                              ; preds = %112, %98
  %107 = load i32, ptr %10, align 4
  %108 = load i32, ptr %9, align 4
  %109 = icmp ult i32 %107, %108
  br i1 %109, label %110, label %115

110:                                              ; preds = %106
  %111 = load ptr, ptr %4, align 8
  call void @OUT_FS_AFSCallBack(ptr noundef %111)
  br label %112

112:                                              ; preds = %110
  %113 = load i32, ptr %10, align 4
  %114 = add i32 %113, 1
  store i32 %114, ptr %10, align 4
  br label %106, !llvm.loop !10

115:                                              ; preds = %106
  call void @llvm.lifetime.end.p0(i64 4, ptr %10) #9
  call void @llvm.lifetime.end.p0(i64 4, ptr %9) #9
  %116 = load ptr, ptr %4, align 8
  call void @OUT_FS_AFSVolSync(ptr noundef %116)
  br label %170

117:                                              ; preds = %20, %20, %20
  %118 = load ptr, ptr %4, align 8
  call void @OUT_FS_AFSVolSync(ptr noundef %118)
  br label %170

119:                                              ; preds = %20
  %120 = load ptr, ptr %4, align 8
  %121 = load i32, ptr @hf_afs_fs_xstats_version, align 4
  %122 = call ptr @ptvcursor_add(ptr noundef %120, i32 noundef %121, i32 noundef 4, i32 noundef 0)
  br label %170

123:                                              ; preds = %20
  %124 = load ptr, ptr %4, align 8
  %125 = load i32, ptr @hf_afs_fs_xstats_version, align 4
  %126 = call ptr @ptvcursor_add(ptr noundef %124, i32 noundef %125, i32 noundef 4, i32 noundef 0)
  %127 = load ptr, ptr %4, align 8
  %128 = load i32, ptr @hf_afs_fs_xstats_timestamp, align 4
  call void @OUT_TIMESECS(ptr noundef %127, i32 noundef %128)
  br label %170

129:                                              ; preds = %20
  %130 = load ptr, ptr %4, align 8
  %131 = load i32, ptr @hf_afs_fs_cps_spare2, align 4
  %132 = call ptr @ptvcursor_add(ptr noundef %130, i32 noundef %131, i32 noundef 4, i32 noundef 0)
  %133 = load ptr, ptr %4, align 8
  %134 = load i32, ptr @hf_afs_fs_cps_spare3, align 4
  %135 = call ptr @ptvcursor_add(ptr noundef %133, i32 noundef %134, i32 noundef 4, i32 noundef 0)
  br label %170

136:                                              ; preds = %20
  call void @llvm.lifetime.start.p0(i64 4, ptr %11) #9
  call void @llvm.lifetime.start.p0(i64 4, ptr %12) #9
  %137 = load ptr, ptr %4, align 8
  %138 = call ptr @ptvcursor_tvbuff(ptr noundef %137)
  %139 = load ptr, ptr %4, align 8
  %140 = call i32 @ptvcursor_current_offset(ptr noundef %139)
  %141 = call i32 @tvb_get_ntohl(ptr noundef %138, i32 noundef %140)
  store i32 %141, ptr %11, align 4
  %142 = load ptr, ptr %4, align 8
  call void @ptvcursor_advance(ptr noundef %142, i32 noundef 4)
  store i32 0, ptr %12, align 4
  br label %143

143:                                              ; preds = %149, %136
  %144 = load i32, ptr %12, align 4
  %145 = load i32, ptr %11, align 4
  %146 = icmp ult i32 %144, %145
  br i1 %146, label %147, label %152

147:                                              ; preds = %143
  %148 = load ptr, ptr %4, align 8
  call void @OUT_FS_AFSFetchStatus(ptr noundef %148, ptr noundef @.str.245)
  br label %149

149:                                              ; preds = %147
  %150 = load i32, ptr %12, align 4
  %151 = add i32 %150, 1
  store i32 %151, ptr %12, align 4
  br label %143, !llvm.loop !11

152:                                              ; preds = %143
  call void @llvm.lifetime.end.p0(i64 4, ptr %12) #9
  call void @llvm.lifetime.end.p0(i64 4, ptr %11) #9
  call void @llvm.lifetime.start.p0(i64 4, ptr %13) #9
  call void @llvm.lifetime.start.p0(i64 4, ptr %14) #9
  %153 = load ptr, ptr %4, align 8
  %154 = call ptr @ptvcursor_tvbuff(ptr noundef %153)
  %155 = load ptr, ptr %4, align 8
  %156 = call i32 @ptvcursor_current_offset(ptr noundef %155)
  %157 = call i32 @tvb_get_ntohl(ptr noundef %154, i32 noundef %156)
  store i32 %157, ptr %13, align 4
  %158 = load ptr, ptr %4, align 8
  call void @ptvcursor_advance(ptr noundef %158, i32 noundef 4)
  store i32 0, ptr %14, align 4
  br label %159

159:                                              ; preds = %165, %152
  %160 = load i32, ptr %14, align 4
  %161 = load i32, ptr %13, align 4
  %162 = icmp ult i32 %160, %161
  br i1 %162, label %163, label %168

163:                                              ; preds = %159
  %164 = load ptr, ptr %4, align 8
  call void @OUT_FS_AFSCallBack(ptr noundef %164)
  br label %165

165:                                              ; preds = %163
  %166 = load i32, ptr %14, align 4
  %167 = add i32 %166, 1
  store i32 %167, ptr %14, align 4
  br label %159, !llvm.loop !12

168:                                              ; preds = %159
  call void @llvm.lifetime.end.p0(i64 4, ptr %14) #9
  call void @llvm.lifetime.end.p0(i64 4, ptr %13) #9
  %169 = load ptr, ptr %4, align 8
  call void @OUT_FS_AFSVolSync(ptr noundef %169)
  br label %170

170:                                              ; preds = %20, %168, %129, %123, %20, %119, %117, %115, %79, %76, %69, %68, %67, %64, %62, %60, %56, %50, %38, %34, %29, %22
  br label %182

171:                                              ; preds = %3
  %172 = load ptr, ptr %5, align 8
  %173 = getelementptr inbounds nuw %struct.rxinfo, ptr %172, i32 0, i32 0
  %174 = load i8, ptr %173, align 4
  %175 = zext i8 %174 to i32
  %176 = icmp eq i32 %175, 4
  br i1 %176, label %177, label %181

177:                                              ; preds = %171
  %178 = load ptr, ptr %4, align 8
  %179 = load i32, ptr @hf_afs_fs_errcode, align 4
  %180 = call ptr @ptvcursor_add(ptr noundef %178, i32 noundef %179, i32 noundef 4, i32 noundef 0)
  br label %181

181:                                              ; preds = %177, %171
  br label %182

182:                                              ; preds = %181, %170
  ret void
}