; Function Attrs: null_pointer_is_valid sspstrong uwtable
define internal void @dissect_fs_reply(ptr noundef %0, ptr noundef readonly captures(none) %1, i32 noundef %2) #0 {
  %4 = load i8, ptr %1, align 4
  switch i8 %4, label %71 [
    i8 1, label %5
    i8 4, label %68
  ]

5:                                                ; preds = %3
  switch i32 %2, label %71 [
    i32 130, label %6
    i32 131, label %9
    i32 132, label %10
    i32 133, label %11
    i32 134, label %11
    i32 135, label %11
    i32 136, label %11
    i32 137, label %12
    i32 141, label %12
    i32 161, label %12
    i32 163, label %12
    i32 138, label %25
    i32 139, label %26
    i32 140, label %27
    i32 142, label %28
    i32 162, label %54
    i32 160, label %50
    i32 159, label %47
    i32 158, label %46
    i32 157, label %46
    i32 156, label %46
    i32 65536, label %59
    i32 155, label %37
    i32 153, label %35
    i32 149, label %29
    i32 151, label %33
  ]

6:                                                ; preds = %5
  tail call fastcc void @OUT_FS_AFSFetchStatus(ptr noundef %0, ptr noundef nonnull @.str.245)
  tail call fastcc void @OUT_FS_AFSCallBack(ptr noundef %0)
  tail call fastcc void @OUT_FS_AFSVolSync(ptr noundef %0)
  %7 = load i32, ptr @hf_afs_fs_data, align 4
  %8 = tail call ptr @ptvcursor_add(ptr noundef %0, i32 noundef %7, i32 noundef -1, i32 noundef 0)
  br label %71

9:                                                ; preds = %5
  tail call fastcc void @dissect_acl(ptr noundef %0)
  tail call fastcc void @OUT_FS_AFSFetchStatus(ptr noundef %0, ptr noundef nonnull @.str.245)
  tail call fastcc void @OUT_FS_AFSVolSync(ptr noundef %0)
  br label %71

10:                                               ; preds = %5
  tail call fastcc void @OUT_FS_AFSFetchStatus(ptr noundef %0, ptr noundef nonnull @.str.245)
  tail call fastcc void @OUT_FS_AFSCallBack(ptr noundef %0)
  tail call fastcc void @OUT_FS_AFSVolSync(ptr noundef %0)
  br label %71

11:                                               ; preds = %5, %5, %5, %5
  tail call fastcc void @OUT_FS_AFSFetchStatus(ptr noundef %0, ptr noundef nonnull @.str.245)
  tail call fastcc void @OUT_FS_AFSVolSync(ptr noundef %0)
  br label %71

12:                                               ; preds = %5, %5, %5, %5
  %13 = icmp eq i32 %2, 137
  %14 = icmp eq i32 %2, 141
  %15 = select i1 %14, ptr @.str.930, ptr @.str.235
  %16 = select i1 %13, ptr @.str.929, ptr %15
  %17 = load i32, ptr @ett_afs_fid, align 4
  %18 = tail call ptr (ptr, i32, i32, ptr, ...) @ptvcursor_add_text_with_subtree(ptr noundef %0, i32 noundef -1, i32 noundef %17, ptr noundef nonnull @.str.950, ptr noundef nonnull %16)
  %19 = load i32, ptr @hf_afs_fs_fid_volume, align 4
  %20 = tail call ptr @ptvcursor_add(ptr noundef %0, i32 noundef %19, i32 noundef 4, i32 noundef 0)
  %21 = load i32, ptr @hf_afs_fs_fid_vnode, align 4
  %22 = tail call ptr @ptvcursor_add(ptr noundef %0, i32 noundef %21, i32 noundef 4, i32 noundef 0)
  %23 = load i32, ptr @hf_afs_fs_fid_uniqifier, align 4
  %24 = tail call ptr @ptvcursor_add(ptr noundef %0, i32 noundef %23, i32 noundef 4, i32 noundef 0)
  tail call void @ptvcursor_pop_subtree(ptr noundef %0)
  tail call fastcc void @OUT_FS_AFSFetchStatus(ptr noundef %0, ptr noundef nonnull @.str.931)
  tail call fastcc void @OUT_FS_AFSFetchStatus(ptr noundef %0, ptr noundef nonnull @.str.932)
  tail call fastcc void @OUT_FS_AFSCallBack(ptr noundef %0)
  tail call fastcc void @OUT_FS_AFSVolSync(ptr noundef %0)
  br label %71

25:                                               ; preds = %5
  tail call fastcc void @OUT_FS_AFSFetchStatus(ptr noundef %0, ptr noundef nonnull @.str.933)
  tail call fastcc void @OUT_FS_AFSFetchStatus(ptr noundef %0, ptr noundef nonnull @.str.934)
  tail call fastcc void @OUT_FS_AFSVolSync(ptr noundef %0)
  br label %71

26:                                               ; preds = %5
  tail call fastcc void @OUT_FS_AFSFid(ptr noundef %0, ptr noundef nonnull @.str.935)
  br label %71

27:                                               ; preds = %5
  tail call fastcc void @OUT_FS_AFSFetchStatus(ptr noundef %0, ptr noundef nonnull @.str.936)
  br label %71

28:                                               ; preds = %5
  tail call fastcc void @OUT_FS_AFSFetchStatus(ptr noundef %0, ptr noundef nonnull @.str.932)
  tail call fastcc void @OUT_FS_AFSVolSync(ptr noundef %0)
  br label %71

29:                                               ; preds = %5
  %30 = load i32, ptr @hf_afs_fs_volname, align 4
  tail call fastcc void @OUT_RXString(ptr noundef %0, i32 noundef %30)
  %31 = load i32, ptr @hf_afs_fs_offlinemsg, align 4
  tail call fastcc void @OUT_RXString(ptr noundef %0, i32 noundef %31)
  %32 = load i32, ptr @hf_afs_fs_motd, align 4
  tail call fastcc void @OUT_RXString(ptr noundef %0, i32 noundef %32)
  br label %71

33:                                               ; preds = %5
  %34 = load i32, ptr @hf_afs_fs_volname, align 4
  tail call fastcc void @OUT_RXString(ptr noundef %0, i32 noundef %34)
  br label %71

35:                                               ; preds = %5
  %36 = load i32, ptr @hf_afs_fs_timestamp, align 4
  tail call fastcc void @OUT_TIMESTAMP(ptr noundef %0, i32 noundef %36)
  br label %71

37:                                               ; preds = %5
  %38 = tail call ptr @ptvcursor_tvbuff(ptr noundef %0)
  %39 = tail call i32 @ptvcursor_current_offset(ptr noundef %0)
  %40 = tail call i32 @tvb_get_ntohl(ptr noundef %38, i32 noundef %39)
  tail call void @ptvcursor_advance(ptr noundef %0, i32 noundef 4)
  %.not = icmp eq i32 %40, 0
  br i1 %.not, label %._crit_edge, label %.lr.ph

.lr.ph:                                           ; preds = %37, %.lr.ph
  %.07276 = phi i32 [ %41, %.lr.ph ], [ 0, %37 ]
  tail call fastcc void @OUT_FS_AFSFetchStatus(ptr noundef %0, ptr noundef nonnull @.str.245)
  %41 = add nuw i32 %.07276, 1
  %exitcond.not = icmp eq i32 %41, %40
  br i1 %exitcond.not, label %._crit_edge, label %.lr.ph, !llvm.loop !8

._crit_edge:                                      ; preds = %.lr.ph, %37
  tail call void @ptvcursor_advance(ptr noundef %0, i32 noundef 4)
  %42 = tail call ptr @ptvcursor_tvbuff(ptr noundef %0)
  %43 = tail call i32 @ptvcursor_current_offset(ptr noundef %0)
  %44 = tail call i32 @tvb_get_ntohl(ptr noundef %42, i32 noundef %43)
  tail call void @ptvcursor_advance(ptr noundef %0, i32 noundef 4)
  %.not89 = icmp eq i32 %44, 0
  br i1 %.not89, label %._crit_edge80, label %.lr.ph79

.lr.ph79:                                         ; preds = %._crit_edge, %.lr.ph79
  %.07477 = phi i32 [ %45, %.lr.ph79 ], [ 0, %._crit_edge ]
  tail call fastcc void @OUT_FS_AFSCallBack(ptr noundef %0)
  %45 = add nuw i32 %.07477, 1
  %exitcond92.not = icmp eq i32 %45, %44
  br i1 %exitcond92.not, label %._crit_edge80, label %.lr.ph79, !llvm.loop !10

._crit_edge80:                                    ; preds = %.lr.ph79, %._crit_edge
  tail call fastcc void @OUT_FS_AFSVolSync(ptr noundef %0)
  br label %71

46:                                               ; preds = %5, %5, %5
  tail call fastcc void @OUT_FS_AFSVolSync(ptr noundef %0)
  br label %71

47:                                               ; preds = %5
  %48 = load i32, ptr @hf_afs_fs_xstats_version, align 4
  %49 = tail call ptr @ptvcursor_add(ptr noundef %0, i32 noundef %48, i32 noundef 4, i32 noundef 0)
  br label %71

50:                                               ; preds = %5
  %51 = load i32, ptr @hf_afs_fs_xstats_version, align 4
  %52 = tail call ptr @ptvcursor_add(ptr noundef %0, i32 noundef %51, i32 noundef 4, i32 noundef 0)
  %53 = load i32, ptr @hf_afs_fs_xstats_timestamp, align 4
  tail call fastcc void @OUT_TIMESECS(ptr noundef %0, i32 noundef %53)
  br label %71

54:                                               ; preds = %5
  %55 = load i32, ptr @hf_afs_fs_cps_spare2, align 4
  %56 = tail call ptr @ptvcursor_add(ptr noundef %0, i32 noundef %55, i32 noundef 4, i32 noundef 0)
  %57 = load i32, ptr @hf_afs_fs_cps_spare3, align 4
  %58 = tail call ptr @ptvcursor_add(ptr noundef %0, i32 noundef %57, i32 noundef 4, i32 noundef 0)
  br label %71

59:                                               ; preds = %5
  %60 = tail call ptr @ptvcursor_tvbuff(ptr noundef %0)
  %61 = tail call i32 @ptvcursor_current_offset(ptr noundef %0)
  %62 = tail call i32 @tvb_get_ntohl(ptr noundef %60, i32 noundef %61)
  tail call void @ptvcursor_advance(ptr noundef %0, i32 noundef 4)
  %.not90 = icmp eq i32 %62, 0
  br i1 %.not90, label %._crit_edge84, label %.lr.ph83

.lr.ph83:                                         ; preds = %59, %.lr.ph83
  %.07381 = phi i32 [ %63, %.lr.ph83 ], [ 0, %59 ]
  tail call fastcc void @OUT_FS_AFSFetchStatus(ptr noundef %0, ptr noundef nonnull @.str.245)
  %63 = add nuw i32 %.07381, 1
  %exitcond93.not = icmp eq i32 %63, %62
  br i1 %exitcond93.not, label %._crit_edge84, label %.lr.ph83, !llvm.loop !11

._crit_edge84:                                    ; preds = %.lr.ph83, %59
  %64 = tail call ptr @ptvcursor_tvbuff(ptr noundef %0)
  %65 = tail call i32 @ptvcursor_current_offset(ptr noundef %0)
  %66 = tail call i32 @tvb_get_ntohl(ptr noundef %64, i32 noundef %65)
  tail call void @ptvcursor_advance(ptr noundef %0, i32 noundef 4)
  %.not91 = icmp eq i32 %66, 0
  br i1 %.not91, label %._crit_edge88, label %.lr.ph87

.lr.ph87:                                         ; preds = %._crit_edge84, %.lr.ph87
  %.085 = phi i32 [ %67, %.lr.ph87 ], [ 0, %._crit_edge84 ]
  tail call fastcc void @OUT_FS_AFSCallBack(ptr noundef %0)
  %67 = add nuw i32 %.085, 1
  %exitcond94.not = icmp eq i32 %67, %66
  br i1 %exitcond94.not, label %._crit_edge88, label %.lr.ph87, !llvm.loop !12

._crit_edge88:                                    ; preds = %.lr.ph87, %._crit_edge84
  tail call fastcc void @OUT_FS_AFSVolSync(ptr noundef %0)
  br label %71

68:                                               ; preds = %3
  %69 = load i32, ptr @hf_afs_fs_errcode, align 4
  %70 = tail call ptr @ptvcursor_add(ptr noundef %0, i32 noundef %69, i32 noundef 4, i32 noundef 0)
  br label %71

71:                                               ; preds = %3, %68, %5, %6, %9, %10, %11, %12, %25, %26, %27, %28, %29, %33, %35, %._crit_edge80, %46, %47, %50, %54, %._crit_edge88
  ret void
}